target datalayout = "e-m:e-p270:32:32-p271:32:32-p272:64:64-i64:64-i128:128-f80:128-n8:16:32:64-S128"
target triple = "x86_64-pc-linux-gnu"

@hf_rsl_ie_id = internal global i32 0, align 4
@hf_rsl_ie_length = internal global i32 0, align 4
@hf_rsl_extension_bit = internal global i32 0, align 4
@hf_rsl_class = internal global i32 0, align 4
@hf_rsl_cause_value = internal global i32 0, align 4
@ett_ie_cause = internal global i32 0, align 4
@.str.781 = private unnamed_addr constant [9 x i8] c"Cause IE\00", align 1

; Function Attrs: null_pointer_is_valid sspstrong uwtable
define internal i32 @dissect_rsl_ie_cause(ptr noundef %0, ptr noundef %1, ptr noundef %2, i32 noundef %3, i1 noundef zeroext %4) #0 {
  %6 = alloca i32, align 4
  %7 = alloca ptr, align 8
  %8 = alloca ptr, align 8
  %9 = alloca ptr, align 8
  %10 = alloca i32, align 4
  %11 = alloca i8, align 1
  %12 = alloca ptr, align 8
  %13 = alloca ptr, align 8
  %14 = alloca i32, align 4
  %15 = alloca i8, align 1
  %16 = alloca i32, align 4
  %17 = alloca i8, align 1
  %18 = alloca i32, align 4
  store ptr %0, ptr %7, align 8
  store ptr %1, ptr %8, align 8
  store ptr %2, ptr %9, align 8
  store i32 %3, ptr %10, align 4
  %19 = zext i1 %4 to i8
  store i8 %19, ptr %11, align 1
  call void @llvm.lifetime.start.p0(i64 8, ptr %12) #6
  call void @llvm.lifetime.start.p0(i64 8, ptr %13) #6
  call void @llvm.lifetime.start.p0(i64 4, ptr %14) #6
  call void @llvm.lifetime.start.p0(i64 1, ptr %15) #6
  call void @llvm.lifetime.start.p0(i64 4, ptr %16) #6
  call void @llvm.lifetime.start.p0(i64 1, ptr %17) #6
  %20 = load i8, ptr %11, align 1, !range !6, !noundef !7
  %21 = trunc i8 %20 to i1
  %22 = zext i1 %21 to i32
  %23 = icmp eq i32 %22, 0
  br i1 %23, label %24, label %34

24:                                               ; preds = %5
  %25 = load ptr, ptr %7, align 8
  %26 = load i32, ptr %10, align 4
  %27 = call zeroext i8 @tvb_get_uint8(ptr noundef %25, i32 noundef %26)
  store i8 %27, ptr %17, align 1
  %28 = load i8, ptr %17, align 1
  %29 = zext i8 %28 to i32
  %30 = icmp ne i32 %29, 26
  br i1 %30, label %31, label %33

31:                                               ; preds = %24
  %32 = load i32, ptr %10, align 4
  store i32 %32, ptr %6, align 4
  store i32 1, ptr %18, align 4
  br label %94

33:                                               ; preds = %24
  br label %34

34:                                               ; preds = %33, %5
  %35 = load ptr, ptr %9, align 8
  %36 = load ptr, ptr %7, align 8
  %37 = load i32, ptr %10, align 4
  %38 = load i32, ptr @ett_ie_cause, align 4
  %39 = call ptr @proto_tree_add_subtree(ptr noundef %35, ptr noundef %36, i32 noundef %37, i32 noundef 0, i32 noundef %38, ptr noundef %12, ptr noundef @.str.781)
  store ptr %39, ptr %13, align 8
  %40 = load ptr, ptr %13, align 8
  %41 = load i32, ptr @hf_rsl_ie_id, align 4
  %42 = load ptr, ptr %7, align 8
  %43 = load i32, ptr %10, align 4
  %44 = call ptr @proto_tree_add_item(ptr noundef %40, i32 noundef %41, ptr noundef %42, i32 noundef %43, i32 noundef 1, i32 noundef 0)
  %45 = load i32, ptr %10, align 4
  %46 = add i32 %45, 1
  store i32 %46, ptr %10, align 4
  %47 = load ptr, ptr %7, align 8
  %48 = load i32, ptr %10, align 4
  %49 = call zeroext i8 @tvb_get_uint8(ptr noundef %47, i32 noundef %48)
  %50 = zext i8 %49 to i32
  store i32 %50, ptr %14, align 4
  %51 = load ptr, ptr %12, align 8
  %52 = load i32, ptr %14, align 4
  %53 = add i32 %52, 2
  call void @proto_item_set_len(ptr noundef %51, i32 noundef %53)
  %54 = load ptr, ptr %13, align 8
  %55 = load i32, ptr @hf_rsl_ie_length, align 4
  %56 = load ptr, ptr %7, align 8
  %57 = load i32, ptr %10, align 4
  %58 = call ptr @proto_tree_add_item(ptr noundef %54, i32 noundef %55, ptr noundef %56, i32 noundef %57, i32 noundef 1, i32 noundef 0)
  %59 = load i32, ptr %10, align 4
  %60 = add i32 %59, 1
  store i32 %60, ptr %10, align 4
  %61 = load i32, ptr %10, align 4
  store i32 %61, ptr %16, align 4
  %62 = load ptr, ptr %7, align 8
  %63 = load i32, ptr %10, align 4
  %64 = call zeroext i8 @tvb_get_uint8(ptr noundef %62, i32 noundef %63)
  store i8 %64, ptr %15, align 1
  %65 = load ptr, ptr %13, align 8
  %66 = load i32, ptr @hf_rsl_extension_bit, align 4
  %67 = load ptr, ptr %7, align 8
  %68 = load i32, ptr %10, align 4
  %69 = call ptr @proto_tree_add_item(ptr noundef %65, i32 noundef %66, ptr noundef %67, i32 noundef %68, i32 noundef 1, i32 noundef 0)
  %70 = load ptr, ptr %13, align 8
  %71 = load i32, ptr @hf_rsl_class, align 4
  %72 = load ptr, ptr %7, align 8
  %73 = load i32, ptr %10, align 4
  %74 = call ptr @proto_tree_add_item(ptr noundef %70, i32 noundef %71, ptr noundef %72, i32 noundef %73, i32 noundef 1, i32 noundef 0)
  %75 = load i8, ptr %15, align 1
  %76 = zext i8 %75 to i32
  %77 = and i32 %76, 128
  %78 = icmp ne i32 %77, 128
  br i1 %78, label %79, label %85

79:                                               ; preds = %34
  %80 = load ptr, ptr %13, align 8
  %81 = load i32, ptr @hf_rsl_cause_value, align 4
  %82 = load ptr, ptr %7, align 8
  %83 = load i32, ptr %10, align 4
  %84 = call ptr @proto_tree_add_item(ptr noundef %80, i32 noundef %81, ptr noundef %82, i32 noundef %83, i32 noundef 1, i32 noundef 0)
  br label %88

85:                                               ; preds = %34
  %86 = load i32, ptr %10, align 4
  %87 = add i32 %86, 1
  store i32 %87, ptr %10, align 4
  br label %88

88:                                               ; preds = %85, %79
  %89 = load i32, ptr %10, align 4
  %90 = add i32 %89, 1
  store i32 %90, ptr %10, align 4
  %91 = load i32, ptr %16, align 4
  %92 = load i32, ptr %14, align 4
  %93 = add i32 %91, %92
  store i32 %93, ptr %6, align 4
  store i32 1, ptr %18, align 4
  br label %94

94:                                               ; preds = %88, %31
  call void @llvm.lifetime.end.p0(i64 1, ptr %17) #6
  call void @llvm.lifetime.end.p0(i64 4, ptr %16) #6
  call void @llvm.lifetime.end.p0(i64 1, ptr %15) #6
  call void @llvm.lifetime.end.p0(i64 4, ptr %14) #6
  call void @llvm.lifetime.end.p0(i64 8, ptr %13) #6
  call void @llvm.lifetime.end.p0(i64 8, ptr %12) #6
  %95 = load i32, ptr %6, align 4
  ret i32 %95
}