; Function Attrs: null_pointer_is_valid sspstrong uwtable
define internal fastcc i32 @dissect_rsl_ie_cause(ptr noundef %0, ptr noundef %1, i32 noundef %2, i1 noundef zeroext %3) unnamed_addr #0 {
  %5 = alloca ptr, align 8
  call void @llvm.lifetime.start.p0(i64 8, ptr nonnull %5) #6
  br i1 %3, label %8, label %6

6:                                                ; preds = %4
  %7 = tail call zeroext i8 @tvb_get_uint8(ptr noundef %0, i32 noundef %2)
  %.not = icmp eq i8 %7, 26
  br i1 %.not, label %8, label %31

8:                                                ; preds = %6, %4
  %9 = load i32, ptr @ett_ie_cause, align 4
  %10 = call ptr @proto_tree_add_subtree(ptr noundef %1, ptr noundef %0, i32 noundef %2, i32 noundef 0, i32 noundef %9, ptr noundef nonnull %5, ptr noundef nonnull @.str.781)
  %11 = load i32, ptr @hf_rsl_ie_id, align 4
  %12 = call ptr @proto_tree_add_item(ptr noundef %10, i32 noundef %11, ptr noundef %0, i32 noundef %2, i32 noundef 1, i32 noundef 0)
  %13 = add i32 %2, 1
  %14 = call zeroext i8 @tvb_get_uint8(ptr noundef %0, i32 noundef %13)
  %15 = zext i8 %14 to i32
  %16 = load ptr, ptr %5, align 8
  %17 = add nuw nsw i32 %15, 2
  call void @proto_item_set_len(ptr noundef %16, i32 noundef %17)
  %18 = load i32, ptr @hf_rsl_ie_length, align 4
  %19 = call ptr @proto_tree_add_item(ptr noundef %10, i32 noundef %18, ptr noundef %0, i32 noundef %13, i32 noundef 1, i32 noundef 0)
  %20 = add i32 %2, 2
  %21 = call zeroext i8 @tvb_get_uint8(ptr noundef %0, i32 noundef %20)
  %22 = load i32, ptr @hf_rsl_extension_bit, align 4
  %23 = call ptr @proto_tree_add_item(ptr noundef %10, i32 noundef %22, ptr noundef %0, i32 noundef %20, i32 noundef 1, i32 noundef 0)
  %24 = load i32, ptr @hf_rsl_class, align 4
  %25 = call ptr @proto_tree_add_item(ptr noundef %10, i32 noundef %24, ptr noundef %0, i32 noundef %20, i32 noundef 1, i32 noundef 0)
  %.not37.not = icmp sgt i8 %21, -1
  br i1 %.not37.not, label %26, label %29

26:                                               ; preds = %8
  %27 = load i32, ptr @hf_rsl_cause_value, align 4
  %28 = call ptr @proto_tree_add_item(ptr noundef %10, i32 noundef %27, ptr noundef %0, i32 noundef %20, i32 noundef 1, i32 noundef 0)
  br label %29

29:                                               ; preds = %8, %26
  %30 = add i32 %20, %15
  br label %31

31:                                               ; preds = %6, %29
  %.0 = phi i32 [ %30, %29 ], [ %2, %6 ]
  call void @llvm.lifetime.end.p0(i64 8, ptr nonnull %5) #6
  ret i32 %.0
}